arm-none-eabi-objdump -h -S main.elf

main.elf:     file format elf32-littlearm

Sections:
Idx Name          Size      VMA       LMA       File off  Algn
  0 .isr_vector   000000bc  08000000  08000000  00010000  2**0
                  CONTENTS, ALLOC, LOAD, READONLY, DATA
  1 .text         00000234  080000bc  080000bc  000100bc  2**2
                  CONTENTS, ALLOC, LOAD, READONLY, CODE
  2 .rodata       00000010  080002f0  080002f0  000102f0  2**2
                  CONTENTS, ALLOC, LOAD, READONLY, DATA
  3 .ARM.extab    00000000  08000300  08000300  00010308  2**0
                  CONTENTS
  4 .ARM          00000000  08000300  08000300  00010308  2**0
                  CONTENTS
  5 .preinit_array 00000000  08000300  08000308  00010308  2**0
                  CONTENTS, ALLOC, LOAD, DATA
  6 .init_array   00000004  08000300  08000300  00010300  2**2
                  CONTENTS, ALLOC, LOAD, READONLY, DATA
  7 .fini_array   00000004  08000304  08000304  00010304  2**2
                  CONTENTS, ALLOC, LOAD, READONLY, DATA
  8 .data         00000000  20000000  20000000  00010308  2**0
                  CONTENTS, ALLOC, LOAD, DATA
  9 .bss          0000001c  20000000  08000308  00020000  2**2
                  ALLOC
 10 ._user_heap_stack 00000604  2000001c  08000308  0002001c  2**0
                  ALLOC
 11 .ARM.attributes 00000028  00000000  00000000  00010308  2**0
                  CONTENTS, READONLY
 12 .comment      00000033  00000000  00000000  00010330  2**0
                  CONTENTS, READONLY
 13 .debug_info   0000011a  00000000  00000000  00010363  2**0
                  CONTENTS, READONLY, DEBUGGING, OCTETS
 14 .debug_abbrev 000000cc  00000000  00000000  0001047d  2**0
                  CONTENTS, READONLY, DEBUGGING, OCTETS
 15 .debug_loc    00000098  00000000  00000000  00010549  2**0
                  CONTENTS, READONLY, DEBUGGING, OCTETS
 16 .debug_aranges 00000020  00000000  00000000  000105e1  2**0
                  CONTENTS, READONLY, DEBUGGING, OCTETS
 17 .debug_line   00000127  00000000  00000000  00010601  2**0
                  CONTENTS, READONLY, DEBUGGING, OCTETS
 18 .debug_str    000001cb  00000000  00000000  00010728  2**0
                  CONTENTS, READONLY, DEBUGGING, OCTETS
 19 .debug_frame  0000002c  00000000  00000000  000108f4  2**2
                  CONTENTS, READONLY, DEBUGGING, OCTETS

Disassembly of section .text:

080000bc <deregister_tm_clones>:
 80000bc:	4804      	ldr	r0, [pc, #16]	; (80000d0 <deregister_tm_clones+0x14>)
 80000be:	4b05      	ldr	r3, [pc, #20]	; (80000d4 <deregister_tm_clones+0x18>)
 80000c0:	b510      	push	{r4, lr}
 80000c2:	4283      	cmp	r3, r0
 80000c4:	d003      	beq.n	80000ce <deregister_tm_clones+0x12>
 80000c6:	4b04      	ldr	r3, [pc, #16]	; (80000d8 <deregister_tm_clones+0x1c>)
 80000c8:	2b00      	cmp	r3, #0
 80000ca:	d000      	beq.n	80000ce <deregister_tm_clones+0x12>
 80000cc:	4798      	blx	r3
 80000ce:	bd10      	pop	{r4, pc}
 80000d0:	20000000 	.word	0x20000000
 80000d4:	20000000 	.word	0x20000000
 80000d8:	00000000 	.word	0x00000000

080000dc <register_tm_clones>:
 80000dc:	4806      	ldr	r0, [pc, #24]	; (80000f8 <register_tm_clones+0x1c>)
 80000de:	4907      	ldr	r1, [pc, #28]	; (80000fc <register_tm_clones+0x20>)
 80000e0:	1a09      	subs	r1, r1, r0
 80000e2:	108b      	asrs	r3, r1, #2
 80000e4:	0fc9      	lsrs	r1, r1, #31
 80000e6:	18c9      	adds	r1, r1, r3
 80000e8:	b510      	push	{r4, lr}
 80000ea:	1049      	asrs	r1, r1, #1
 80000ec:	d003      	beq.n	80000f6 <register_tm_clones+0x1a>
 80000ee:	4b04      	ldr	r3, [pc, #16]	; (8000100 <register_tm_clones+0x24>)
 80000f0:	2b00      	cmp	r3, #0
 80000f2:	d000      	beq.n	80000f6 <register_tm_clones+0x1a>
 80000f4:	4798      	blx	r3
 80000f6:	bd10      	pop	{r4, pc}
 80000f8:	20000000 	.word	0x20000000
 80000fc:	20000000 	.word	0x20000000
 8000100:	00000000 	.word	0x00000000

08000104 <__do_global_dtors_aux>:
 8000104:	b510      	push	{r4, lr}
 8000106:	4c07      	ldr	r4, [pc, #28]	; (8000124 <__do_global_dtors_aux+0x20>)
 8000108:	7823      	ldrb	r3, [r4, #0]
 800010a:	2b00      	cmp	r3, #0
 800010c:	d109      	bne.n	8000122 <__do_global_dtors_aux+0x1e>
 800010e:	f7ff ffd5 	bl	80000bc <deregister_tm_clones>
 8000112:	4b05      	ldr	r3, [pc, #20]	; (8000128 <__do_global_dtors_aux+0x24>)
 8000114:	2b00      	cmp	r3, #0
 8000116:	d002      	beq.n	800011e <__do_global_dtors_aux+0x1a>
 8000118:	4804      	ldr	r0, [pc, #16]	; (800012c <__do_global_dtors_aux+0x28>)
 800011a:	e000      	b.n	800011e <__do_global_dtors_aux+0x1a>
 800011c:	bf00      	nop
 800011e:	2301      	movs	r3, #1
 8000120:	7023      	strb	r3, [r4, #0]
 8000122:	bd10      	pop	{r4, pc}
 8000124:	20000000 	.word	0x20000000
 8000128:	00000000 	.word	0x00000000
 800012c:	080002d8 	.word	0x080002d8

08000130 <frame_dummy>:
 8000130:	4b05      	ldr	r3, [pc, #20]	; (8000148 <frame_dummy+0x18>)
 8000132:	b510      	push	{r4, lr}
 8000134:	2b00      	cmp	r3, #0
 8000136:	d003      	beq.n	8000140 <frame_dummy+0x10>
 8000138:	4904      	ldr	r1, [pc, #16]	; (800014c <frame_dummy+0x1c>)
 800013a:	4805      	ldr	r0, [pc, #20]	; (8000150 <frame_dummy+0x20>)
 800013c:	e000      	b.n	8000140 <frame_dummy+0x10>
 800013e:	bf00      	nop
 8000140:	f7ff ffcc 	bl	80000dc <register_tm_clones>
 8000144:	bd10      	pop	{r4, pc}
 8000146:	46c0      	nop			; (mov r8, r8)
 8000148:	00000000 	.word	0x00000000
 800014c:	20000004 	.word	0x20000004
 8000150:	080002d8 	.word	0x080002d8

08000154 <__libc_init_array>:
 8000154:	b570      	push	{r4, r5, r6, lr}
 8000156:	4d0c      	ldr	r5, [pc, #48]	; (8000188 <__libc_init_array+0x34>)
 8000158:	4e0c      	ldr	r6, [pc, #48]	; (800018c <__libc_init_array+0x38>)
 800015a:	1b76      	subs	r6, r6, r5
 800015c:	10b6      	asrs	r6, r6, #2
 800015e:	d005      	beq.n	800016c <__libc_init_array+0x18>
 8000160:	2400      	movs	r4, #0
 8000162:	cd08      	ldmia	r5!, {r3}
 8000164:	3401      	adds	r4, #1
 8000166:	4798      	blx	r3
 8000168:	42a6      	cmp	r6, r4
 800016a:	d1fa      	bne.n	8000162 <__libc_init_array+0xe>
 800016c:	f000 f8b4 	bl	80002d8 <_init>
 8000170:	4d07      	ldr	r5, [pc, #28]	; (8000190 <__libc_init_array+0x3c>)
 8000172:	4e08      	ldr	r6, [pc, #32]	; (8000194 <__libc_init_array+0x40>)
 8000174:	1b76      	subs	r6, r6, r5
 8000176:	10b6      	asrs	r6, r6, #2
 8000178:	d005      	beq.n	8000186 <__libc_init_array+0x32>
 800017a:	2400      	movs	r4, #0
 800017c:	cd08      	ldmia	r5!, {r3}
 800017e:	3401      	adds	r4, #1
 8000180:	4798      	blx	r3
 8000182:	42a6      	cmp	r6, r4
 8000184:	d1fa      	bne.n	800017c <__libc_init_array+0x28>
 8000186:	bd70      	pop	{r4, r5, r6, pc}
 8000188:	08000300 	.word	0x08000300
 800018c:	08000300 	.word	0x08000300
 8000190:	08000300 	.word	0x08000300
 8000194:	08000304 	.word	0x08000304

08000198 <_ZN4CPin5resetEv>:
 8000198:	2301      	movs	r3, #1
 800019a:	b510      	push	{r4, lr}
 800019c:	7902      	ldrb	r2, [r0, #4]
 800019e:	4903      	ldr	r1, [pc, #12]	; (80001ac <_ZN4CPin5resetEv+0x14>)
 80001a0:	0052      	lsls	r2, r2, #1
 80001a2:	4093      	lsls	r3, r2
 80001a4:	680c      	ldr	r4, [r1, #0]
 80001a6:	4323      	orrs	r3, r4
 80001a8:	600b      	str	r3, [r1, #0]
 80001aa:	bd10      	pop	{r4, pc}
 80001ac:	4800000c 	.word	0x4800000c

080001b0 <_ZN4CPin3setEv>:
 80001b0:	2301      	movs	r3, #1
 80001b2:	7900      	ldrb	r0, [r0, #4]
 80001b4:	4a02      	ldr	r2, [pc, #8]	; (80001c0 <_ZN4CPin3setEv+0x10>)
 80001b6:	4083      	lsls	r3, r0
 80001b8:	6811      	ldr	r1, [r2, #0]
 80001ba:	430b      	orrs	r3, r1
 80001bc:	6013      	str	r3, [r2, #0]
 80001be:	4770      	bx	lr
 80001c0:	4800000c 	.word	0x4800000c

080001c4 <_Z9GPIO_InitP15GPIO_InitStruct>:
 80001c4:	6801      	ldr	r1, [r0, #0]
 80001c6:	b530      	push	{r4, r5, lr}
 80001c8:	290f      	cmp	r1, #15
 80001ca:	d826      	bhi.n	800021a <_Z9GPIO_InitP15GPIO_InitStruct+0x56>
 80001cc:	7903      	ldrb	r3, [r0, #4]
 80001ce:	2b01      	cmp	r3, #1
 80001d0:	d823      	bhi.n	800021a <_Z9GPIO_InitP15GPIO_InitStruct+0x56>
 80001d2:	d117      	bne.n	8000204 <_Z9GPIO_InitP15GPIO_InitStruct+0x40>
 80001d4:	2403      	movs	r4, #3
 80001d6:	0049      	lsls	r1, r1, #1
 80001d8:	408c      	lsls	r4, r1
 80001da:	4d10      	ldr	r5, [pc, #64]	; (800021c <_Z9GPIO_InitP15GPIO_InitStruct+0x58>)
 80001dc:	682a      	ldr	r2, [r5, #0]
 80001de:	43a2      	bics	r2, r4
 80001e0:	0014      	movs	r4, r2
 80001e2:	7982      	ldrb	r2, [r0, #6]
 80001e4:	408a      	lsls	r2, r1
 80001e6:	0019      	movs	r1, r3
 80001e8:	4322      	orrs	r2, r4
 80001ea:	602a      	str	r2, [r5, #0]
 80001ec:	6805      	ldr	r5, [r0, #0]
 80001ee:	4c0c      	ldr	r4, [pc, #48]	; (8000220 <_Z9GPIO_InitP15GPIO_InitStruct+0x5c>)
 80001f0:	40a9      	lsls	r1, r5
 80001f2:	6822      	ldr	r2, [r4, #0]
 80001f4:	438a      	bics	r2, r1
 80001f6:	0011      	movs	r1, r2
 80001f8:	7942      	ldrb	r2, [r0, #5]
 80001fa:	0912      	lsrs	r2, r2, #4
 80001fc:	401a      	ands	r2, r3
 80001fe:	40aa      	lsls	r2, r5
 8000200:	430a      	orrs	r2, r1
 8000202:	6022      	str	r2, [r4, #0]
 8000204:	6802      	ldr	r2, [r0, #0]
 8000206:	2003      	movs	r0, #3
 8000208:	2490      	movs	r4, #144	; 0x90
 800020a:	0052      	lsls	r2, r2, #1
 800020c:	4090      	lsls	r0, r2
 800020e:	4093      	lsls	r3, r2
 8000210:	05e4      	lsls	r4, r4, #23
 8000212:	6821      	ldr	r1, [r4, #0]
 8000214:	4381      	bics	r1, r0
 8000216:	430b      	orrs	r3, r1
 8000218:	6023      	str	r3, [r4, #0]
 800021a:	bd30      	pop	{r4, r5, pc}
 800021c:	48000008 	.word	0x48000008
 8000220:	48000004 	.word	0x48000004

08000224 <_Z5delaym>:
 8000224:	b082      	sub	sp, #8
 8000226:	9001      	str	r0, [sp, #4]
 8000228:	9b01      	ldr	r3, [sp, #4]
 800022a:	2b00      	cmp	r3, #0
 800022c:	d003      	beq.n	8000236 <_Z5delaym+0x12>
 800022e:	9b01      	ldr	r3, [sp, #4]
 8000230:	3b01      	subs	r3, #1
 8000232:	9301      	str	r3, [sp, #4]
 8000234:	e7f8      	b.n	8000228 <_Z5delaym+0x4>
 8000236:	b002      	add	sp, #8
 8000238:	4770      	bx	lr
	...

0800023c <main>:
 800023c:	2302      	movs	r3, #2
 800023e:	b5f0      	push	{r4, r5, r6, r7, lr}
 8000240:	2506      	movs	r5, #6
 8000242:	b085      	sub	sp, #20
 8000244:	33ff      	adds	r3, #255	; 0xff
 8000246:	4668      	mov	r0, sp
 8000248:	9500      	str	r5, [sp, #0]
 800024a:	9301      	str	r3, [sp, #4]
 800024c:	ac02      	add	r4, sp, #8
 800024e:	f7ff ffb9 	bl	80001c4 <_Z9GPIO_InitP15GPIO_InitStruct>
 8000252:	4b0c      	ldr	r3, [pc, #48]	; (8000284 <main+0x48>)
 8000254:	0020      	movs	r0, r4
 8000256:	26fa      	movs	r6, #250	; 0xfa
 8000258:	7125      	strb	r5, [r4, #4]
 800025a:	9302      	str	r3, [sp, #8]
 800025c:	2500      	movs	r5, #0
 800025e:	f7ff ff9b 	bl	8000198 <_ZN4CPin5resetEv>
 8000262:	2701      	movs	r7, #1
 8000264:	00b6      	lsls	r6, r6, #2
 8000266:	0020      	movs	r0, r4
 8000268:	2d00      	cmp	r5, #0
 800026a:	d006      	beq.n	800027a <main+0x3e>
 800026c:	f7ff ff94 	bl	8000198 <_ZN4CPin5resetEv>
 8000270:	2500      	movs	r5, #0
 8000272:	0030      	movs	r0, r6
 8000274:	f7ff ffd6 	bl	8000224 <_Z5delaym>
 8000278:	e7f5      	b.n	8000266 <main+0x2a>
 800027a:	f7ff ff99 	bl	80001b0 <_ZN4CPin3setEv>
 800027e:	003d      	movs	r5, r7
 8000280:	e7f7      	b.n	8000272 <main+0x36>
 8000282:	46c0      	nop			; (mov r8, r8)
 8000284:	080002f8 	.word	0x080002f8

08000288 <Reset_Handler>:
 8000288:	480c      	ldr	r0, [pc, #48]	; (80002bc <LoopForever+0x2>)
 800028a:	4685      	mov	sp, r0
 800028c:	480c      	ldr	r0, [pc, #48]	; (80002c0 <LoopForever+0x6>)
 800028e:	490d      	ldr	r1, [pc, #52]	; (80002c4 <LoopForever+0xa>)
 8000290:	4a0d      	ldr	r2, [pc, #52]	; (80002c8 <LoopForever+0xe>)
 8000292:	2300      	movs	r3, #0
 8000294:	e002      	b.n	800029c <LoopCopyDataInit>

08000296 <CopyDataInit>:
 8000296:	58d4      	ldr	r4, [r2, r3]
 8000298:	50c4      	str	r4, [r0, r3]
 800029a:	3304      	adds	r3, #4

0800029c <LoopCopyDataInit>:
 800029c:	18c4      	adds	r4, r0, r3
 800029e:	428c      	cmp	r4, r1
 80002a0:	d3f9      	bcc.n	8000296 <CopyDataInit>
 80002a2:	4a0a      	ldr	r2, [pc, #40]	; (80002cc <LoopForever+0x12>)
 80002a4:	4c0a      	ldr	r4, [pc, #40]	; (80002d0 <LoopForever+0x16>)
 80002a6:	2300      	movs	r3, #0
 80002a8:	e001      	b.n	80002ae <LoopFillZerobss>

080002aa <FillZerobss>:
 80002aa:	6013      	str	r3, [r2, #0]
 80002ac:	3204      	adds	r2, #4

080002ae <LoopFillZerobss>:
 80002ae:	42a2      	cmp	r2, r4
 80002b0:	d3fb      	bcc.n	80002aa <FillZerobss>
 80002b2:	f7ff ff4f 	bl	8000154 <__libc_init_array>
 80002b6:	f7ff ffc1 	bl	800023c <main>

080002ba <LoopForever>:
 80002ba:	e7fe      	b.n	80002ba <LoopForever>
 80002bc:	20008000 	.word	0x20008000
 80002c0:	20000000 	.word	0x20000000
 80002c4:	20000000 	.word	0x20000000
 80002c8:	08000308 	.word	0x08000308
 80002cc:	20000000 	.word	0x20000000
 80002d0:	2000001c 	.word	0x2000001c

080002d4 <ADC1_IRQHandler>:
 80002d4:	e7fe      	b.n	80002d4 <ADC1_IRQHandler>
	...

080002d8 <_init>:
 80002d8:	b5f8      	push	{r3, r4, r5, r6, r7, lr}
 80002da:	46c0      	nop			; (mov r8, r8)
 80002dc:	bcf8      	pop	{r3, r4, r5, r6, r7}
 80002de:	bc08      	pop	{r3}
 80002e0:	469e      	mov	lr, r3
 80002e2:	4770      	bx	lr

080002e4 <_fini>:
 80002e4:	b5f8      	push	{r3, r4, r5, r6, r7, lr}
 80002e6:	46c0      	nop			; (mov r8, r8)
 80002e8:	bcf8      	pop	{r3, r4, r5, r6, r7}
 80002ea:	bc08      	pop	{r3}
 80002ec:	469e      	mov	lr, r3
 80002ee:	4770      	bx	lr
