arm-none-eabi-objdump -h -S main.elf

main.elf:     file format elf32-littlearm

Sections:
Idx Name          Size      VMA       LMA       File off  Algn
  0 .isr_vector   000000bc  08000000  08000000  00010000  2**0
                  CONTENTS, ALLOC, LOAD, READONLY, DATA
  1 .text         000006d4  080000bc  080000bc  000100bc  2**2
                  CONTENTS, ALLOC, LOAD, READONLY, CODE
  2 .rodata       00000108  08000790  08000790  00010790  2**2
                  CONTENTS, ALLOC, LOAD, READONLY, DATA
  3 .ARM.extab    00000000  08000898  08000898  00020064  2**0
                  CONTENTS
  4 .ARM          00000000  08000898  08000898  00020064  2**0
                  CONTENTS
  5 .preinit_array 00000000  08000898  08000898  00020064  2**0
                  CONTENTS, ALLOC, LOAD, DATA
  6 .init_array   00000004  08000898  08000898  00010898  2**2
                  CONTENTS, ALLOC, LOAD, READONLY, DATA
  7 .fini_array   00000004  0800089c  0800089c  0001089c  2**2
                  CONTENTS, ALLOC, LOAD, READONLY, DATA
  8 .data         00000064  20000000  080008a0  00020000  2**2
                  CONTENTS, ALLOC, LOAD, DATA
  9 .bss          0000002c  20000064  08000904  00020064  2**2
                  ALLOC
 10 ._user_heap_stack 00000600  20000090  08000904  00020090  2**0
                  ALLOC
 11 .ARM.attributes 00000028  00000000  00000000  00020064  2**0
                  CONTENTS, READONLY
 12 .comment      00000033  00000000  00000000  0002008c  2**0
                  CONTENTS, READONLY
 13 .debug_info   00006615  00000000  00000000  000200bf  2**0
                  CONTENTS, READONLY, DEBUGGING, OCTETS
 14 .debug_abbrev 0000210c  00000000  00000000  000266d4  2**0
                  CONTENTS, READONLY, DEBUGGING, OCTETS
 15 .debug_loc    000010dd  00000000  00000000  000287e0  2**0
                  CONTENTS, READONLY, DEBUGGING, OCTETS
 16 .debug_aranges 00000250  00000000  00000000  000298c0  2**3
                  CONTENTS, READONLY, DEBUGGING, OCTETS
 17 .debug_ranges 00000168  00000000  00000000  00029b10  2**0
                  CONTENTS, READONLY, DEBUGGING, OCTETS
 18 .debug_line   00001eec  00000000  00000000  00029c78  2**0
                  CONTENTS, READONLY, DEBUGGING, OCTETS
 19 .debug_str    000020e8  00000000  00000000  0002bb64  2**0
                  CONTENTS, READONLY, DEBUGGING, OCTETS
 20 .debug_frame  00000400  00000000  00000000  0002dc4c  2**2
                  CONTENTS, READONLY, DEBUGGING, OCTETS

Disassembly of section .text:

080000bc <deregister_tm_clones>:
 80000bc:	4804      	ldr	r0, [pc, #16]	; (80000d0 <deregister_tm_clones+0x14>)
 80000be:	4b05      	ldr	r3, [pc, #20]	; (80000d4 <deregister_tm_clones+0x18>)
 80000c0:	b510      	push	{r4, lr}
 80000c2:	4283      	cmp	r3, r0
 80000c4:	d003      	beq.n	80000ce <deregister_tm_clones+0x12>
 80000c6:	4b04      	ldr	r3, [pc, #16]	; (80000d8 <deregister_tm_clones+0x1c>)
 80000c8:	2b00      	cmp	r3, #0
 80000ca:	d000      	beq.n	80000ce <deregister_tm_clones+0x12>
 80000cc:	4798      	blx	r3
 80000ce:	bd10      	pop	{r4, pc}
 80000d0:	20000064 	.word	0x20000064
 80000d4:	20000064 	.word	0x20000064
 80000d8:	00000000 	.word	0x00000000

080000dc <register_tm_clones>:
 80000dc:	4806      	ldr	r0, [pc, #24]	; (80000f8 <register_tm_clones+0x1c>)
 80000de:	4907      	ldr	r1, [pc, #28]	; (80000fc <register_tm_clones+0x20>)
 80000e0:	1a09      	subs	r1, r1, r0
 80000e2:	108b      	asrs	r3, r1, #2
 80000e4:	0fc9      	lsrs	r1, r1, #31
 80000e6:	18c9      	adds	r1, r1, r3
 80000e8:	b510      	push	{r4, lr}
 80000ea:	1049      	asrs	r1, r1, #1
 80000ec:	d003      	beq.n	80000f6 <register_tm_clones+0x1a>
 80000ee:	4b04      	ldr	r3, [pc, #16]	; (8000100 <register_tm_clones+0x24>)
 80000f0:	2b00      	cmp	r3, #0
 80000f2:	d000      	beq.n	80000f6 <register_tm_clones+0x1a>
 80000f4:	4798      	blx	r3
 80000f6:	bd10      	pop	{r4, pc}
 80000f8:	20000064 	.word	0x20000064
 80000fc:	20000064 	.word	0x20000064
 8000100:	00000000 	.word	0x00000000

08000104 <__do_global_dtors_aux>:
 8000104:	b510      	push	{r4, lr}
 8000106:	4c07      	ldr	r4, [pc, #28]	; (8000124 <__do_global_dtors_aux+0x20>)
 8000108:	7823      	ldrb	r3, [r4, #0]
 800010a:	2b00      	cmp	r3, #0
 800010c:	d109      	bne.n	8000122 <__do_global_dtors_aux+0x1e>
 800010e:	f7ff ffd5 	bl	80000bc <deregister_tm_clones>
 8000112:	4b05      	ldr	r3, [pc, #20]	; (8000128 <__do_global_dtors_aux+0x24>)
 8000114:	2b00      	cmp	r3, #0
 8000116:	d002      	beq.n	800011e <__do_global_dtors_aux+0x1a>
 8000118:	4804      	ldr	r0, [pc, #16]	; (800012c <__do_global_dtors_aux+0x28>)
 800011a:	e000      	b.n	800011e <__do_global_dtors_aux+0x1a>
 800011c:	bf00      	nop
 800011e:	2301      	movs	r3, #1
 8000120:	7023      	strb	r3, [r4, #0]
 8000122:	bd10      	pop	{r4, pc}
 8000124:	20000064 	.word	0x20000064
 8000128:	00000000 	.word	0x00000000
 800012c:	08000778 	.word	0x08000778

08000130 <frame_dummy>:
 8000130:	4b05      	ldr	r3, [pc, #20]	; (8000148 <frame_dummy+0x18>)
 8000132:	b510      	push	{r4, lr}
 8000134:	2b00      	cmp	r3, #0
 8000136:	d003      	beq.n	8000140 <frame_dummy+0x10>
 8000138:	4904      	ldr	r1, [pc, #16]	; (800014c <frame_dummy+0x1c>)
 800013a:	4805      	ldr	r0, [pc, #20]	; (8000150 <frame_dummy+0x20>)
 800013c:	e000      	b.n	8000140 <frame_dummy+0x10>
 800013e:	bf00      	nop
 8000140:	f7ff ffcc 	bl	80000dc <register_tm_clones>
 8000144:	bd10      	pop	{r4, pc}
 8000146:	46c0      	nop			; (mov r8, r8)
 8000148:	00000000 	.word	0x00000000
 800014c:	20000068 	.word	0x20000068
 8000150:	08000778 	.word	0x08000778

08000154 <__libc_init_array>:
 8000154:	b570      	push	{r4, r5, r6, lr}
 8000156:	4d0c      	ldr	r5, [pc, #48]	; (8000188 <__libc_init_array+0x34>)
 8000158:	4e0c      	ldr	r6, [pc, #48]	; (800018c <__libc_init_array+0x38>)
 800015a:	1b76      	subs	r6, r6, r5
 800015c:	10b6      	asrs	r6, r6, #2
 800015e:	d005      	beq.n	800016c <__libc_init_array+0x18>
 8000160:	2400      	movs	r4, #0
 8000162:	cd08      	ldmia	r5!, {r3}
 8000164:	3401      	adds	r4, #1
 8000166:	4798      	blx	r3
 8000168:	42a6      	cmp	r6, r4
 800016a:	d1fa      	bne.n	8000162 <__libc_init_array+0xe>
 800016c:	f000 fb04 	bl	8000778 <_init>
 8000170:	4d07      	ldr	r5, [pc, #28]	; (8000190 <__libc_init_array+0x3c>)
 8000172:	4e08      	ldr	r6, [pc, #32]	; (8000194 <__libc_init_array+0x40>)
 8000174:	1b76      	subs	r6, r6, r5
 8000176:	10b6      	asrs	r6, r6, #2
 8000178:	d005      	beq.n	8000186 <__libc_init_array+0x32>
 800017a:	2400      	movs	r4, #0
 800017c:	cd08      	ldmia	r5!, {r3}
 800017e:	3401      	adds	r4, #1
 8000180:	4798      	blx	r3
 8000182:	42a6      	cmp	r6, r4
 8000184:	d1fa      	bne.n	800017c <__libc_init_array+0x28>
 8000186:	bd70      	pop	{r4, r5, r6, pc}
 8000188:	08000898 	.word	0x08000898
 800018c:	08000898 	.word	0x08000898
 8000190:	08000898 	.word	0x08000898
 8000194:	0800089c 	.word	0x0800089c

08000198 <malloc>:
 8000198:	b510      	push	{r4, lr}
 800019a:	4b03      	ldr	r3, [pc, #12]	; (80001a8 <malloc+0x10>)
 800019c:	0001      	movs	r1, r0
 800019e:	6818      	ldr	r0, [r3, #0]
 80001a0:	f000 f86e 	bl	8000280 <_malloc_r>
 80001a4:	bd10      	pop	{r4, pc}
 80001a6:	46c0      	nop			; (mov r8, r8)
 80001a8:	20000000 	.word	0x20000000

080001ac <free>:
 80001ac:	b510      	push	{r4, lr}
 80001ae:	4b03      	ldr	r3, [pc, #12]	; (80001bc <free+0x10>)
 80001b0:	0001      	movs	r1, r0
 80001b2:	6818      	ldr	r0, [r3, #0]
 80001b4:	f000 f804 	bl	80001c0 <_free_r>
 80001b8:	bd10      	pop	{r4, pc}
 80001ba:	46c0      	nop			; (mov r8, r8)
 80001bc:	20000000 	.word	0x20000000

080001c0 <_free_r>:
 80001c0:	b570      	push	{r4, r5, r6, lr}
 80001c2:	0005      	movs	r5, r0
 80001c4:	2900      	cmp	r1, #0
 80001c6:	d015      	beq.n	80001f4 <_free_r+0x34>
 80001c8:	1f0c      	subs	r4, r1, #4
 80001ca:	6823      	ldr	r3, [r4, #0]
 80001cc:	2b00      	cmp	r3, #0
 80001ce:	db23      	blt.n	8000218 <_free_r+0x58>
 80001d0:	0028      	movs	r0, r5
 80001d2:	f000 f90d 	bl	80003f0 <__malloc_lock>
 80001d6:	4a29      	ldr	r2, [pc, #164]	; (800027c <_free_r+0xbc>)
 80001d8:	6813      	ldr	r3, [r2, #0]
 80001da:	2b00      	cmp	r3, #0
 80001dc:	d005      	beq.n	80001ea <_free_r+0x2a>
 80001de:	42a3      	cmp	r3, r4
 80001e0:	d90b      	bls.n	80001fa <_free_r+0x3a>
 80001e2:	6821      	ldr	r1, [r4, #0]
 80001e4:	1860      	adds	r0, r4, r1
 80001e6:	4283      	cmp	r3, r0
 80001e8:	d02d      	beq.n	8000246 <_free_r+0x86>
 80001ea:	6063      	str	r3, [r4, #4]
 80001ec:	0028      	movs	r0, r5
 80001ee:	6014      	str	r4, [r2, #0]
 80001f0:	f000 f900 	bl	80003f4 <__malloc_unlock>
 80001f4:	bd70      	pop	{r4, r5, r6, pc}
 80001f6:	42a3      	cmp	r3, r4
 80001f8:	d810      	bhi.n	800021c <_free_r+0x5c>
 80001fa:	001a      	movs	r2, r3
 80001fc:	685b      	ldr	r3, [r3, #4]
 80001fe:	2b00      	cmp	r3, #0
 8000200:	d1f9      	bne.n	80001f6 <_free_r+0x36>
 8000202:	6810      	ldr	r0, [r2, #0]
 8000204:	1811      	adds	r1, r2, r0
 8000206:	428c      	cmp	r4, r1
 8000208:	d019      	beq.n	800023e <_free_r+0x7e>
 800020a:	d330      	bcc.n	800026e <_free_r+0xae>
 800020c:	6063      	str	r3, [r4, #4]
 800020e:	6054      	str	r4, [r2, #4]
 8000210:	0028      	movs	r0, r5
 8000212:	f000 f8ef 	bl	80003f4 <__malloc_unlock>
 8000216:	e7ed      	b.n	80001f4 <_free_r+0x34>
 8000218:	18e4      	adds	r4, r4, r3
 800021a:	e7d9      	b.n	80001d0 <_free_r+0x10>
 800021c:	6811      	ldr	r1, [r2, #0]
 800021e:	1850      	adds	r0, r2, r1
 8000220:	42a0      	cmp	r0, r4
 8000222:	d017      	beq.n	8000254 <_free_r+0x94>
 8000224:	d823      	bhi.n	800026e <_free_r+0xae>
 8000226:	6821      	ldr	r1, [r4, #0]
 8000228:	1860      	adds	r0, r4, r1
 800022a:	4283      	cmp	r3, r0
 800022c:	d1ee      	bne.n	800020c <_free_r+0x4c>
 800022e:	6818      	ldr	r0, [r3, #0]
 8000230:	685b      	ldr	r3, [r3, #4]
 8000232:	4684      	mov	ip, r0
 8000234:	4461      	add	r1, ip
 8000236:	6021      	str	r1, [r4, #0]
 8000238:	6063      	str	r3, [r4, #4]
 800023a:	6054      	str	r4, [r2, #4]
 800023c:	e7e8      	b.n	8000210 <_free_r+0x50>
 800023e:	6823      	ldr	r3, [r4, #0]
 8000240:	1818      	adds	r0, r3, r0
 8000242:	6010      	str	r0, [r2, #0]
 8000244:	e7e4      	b.n	8000210 <_free_r+0x50>
 8000246:	6818      	ldr	r0, [r3, #0]
 8000248:	685b      	ldr	r3, [r3, #4]
 800024a:	4684      	mov	ip, r0
 800024c:	4461      	add	r1, ip
 800024e:	6021      	str	r1, [r4, #0]
 8000250:	6063      	str	r3, [r4, #4]
 8000252:	e7cb      	b.n	80001ec <_free_r+0x2c>
 8000254:	6820      	ldr	r0, [r4, #0]
 8000256:	1809      	adds	r1, r1, r0
 8000258:	1850      	adds	r0, r2, r1
 800025a:	6011      	str	r1, [r2, #0]
 800025c:	4283      	cmp	r3, r0
 800025e:	d1d7      	bne.n	8000210 <_free_r+0x50>
 8000260:	6818      	ldr	r0, [r3, #0]
 8000262:	685b      	ldr	r3, [r3, #4]
 8000264:	4684      	mov	ip, r0
 8000266:	4461      	add	r1, ip
 8000268:	6011      	str	r1, [r2, #0]
 800026a:	6053      	str	r3, [r2, #4]
 800026c:	e7d0      	b.n	8000210 <_free_r+0x50>
 800026e:	230c      	movs	r3, #12
 8000270:	0028      	movs	r0, r5
 8000272:	602b      	str	r3, [r5, #0]
 8000274:	f000 f8be 	bl	80003f4 <__malloc_unlock>
 8000278:	e7bc      	b.n	80001f4 <_free_r+0x34>
 800027a:	46c0      	nop			; (mov r8, r8)
 800027c:	20000080 	.word	0x20000080

08000280 <_malloc_r>:
 8000280:	b5f8      	push	{r3, r4, r5, r6, r7, lr}
 8000282:	2303      	movs	r3, #3
 8000284:	1ccd      	adds	r5, r1, #3
 8000286:	439d      	bics	r5, r3
 8000288:	3508      	adds	r5, #8
 800028a:	0006      	movs	r6, r0
 800028c:	2d0c      	cmp	r5, #12
 800028e:	d227      	bcs.n	80002e0 <_malloc_r+0x60>
 8000290:	250c      	movs	r5, #12
 8000292:	42a9      	cmp	r1, r5
 8000294:	d826      	bhi.n	80002e4 <_malloc_r+0x64>
 8000296:	0030      	movs	r0, r6
 8000298:	f000 f8aa 	bl	80003f0 <__malloc_lock>
 800029c:	4f28      	ldr	r7, [pc, #160]	; (8000340 <_malloc_r+0xc0>)
 800029e:	683a      	ldr	r2, [r7, #0]
 80002a0:	2a00      	cmp	r2, #0
 80002a2:	d027      	beq.n	80002f4 <_malloc_r+0x74>
 80002a4:	0014      	movs	r4, r2
 80002a6:	e004      	b.n	80002b2 <_malloc_r+0x32>
 80002a8:	6863      	ldr	r3, [r4, #4]
 80002aa:	0022      	movs	r2, r4
 80002ac:	2b00      	cmp	r3, #0
 80002ae:	d021      	beq.n	80002f4 <_malloc_r+0x74>
 80002b0:	001c      	movs	r4, r3
 80002b2:	6823      	ldr	r3, [r4, #0]
 80002b4:	1b5b      	subs	r3, r3, r5
 80002b6:	d4f7      	bmi.n	80002a8 <_malloc_r+0x28>
 80002b8:	2b0b      	cmp	r3, #11
 80002ba:	d817      	bhi.n	80002ec <_malloc_r+0x6c>
 80002bc:	6863      	ldr	r3, [r4, #4]
 80002be:	4294      	cmp	r4, r2
 80002c0:	d035      	beq.n	800032e <_malloc_r+0xae>
 80002c2:	6053      	str	r3, [r2, #4]
 80002c4:	0030      	movs	r0, r6
 80002c6:	f000 f895 	bl	80003f4 <__malloc_unlock>
 80002ca:	0020      	movs	r0, r4
 80002cc:	2207      	movs	r2, #7
 80002ce:	300b      	adds	r0, #11
 80002d0:	1d23      	adds	r3, r4, #4
 80002d2:	4390      	bics	r0, r2
 80002d4:	1ac2      	subs	r2, r0, r3
 80002d6:	4298      	cmp	r0, r3
 80002d8:	d007      	beq.n	80002ea <_malloc_r+0x6a>
 80002da:	1a1b      	subs	r3, r3, r0
 80002dc:	50a3      	str	r3, [r4, r2]
 80002de:	e004      	b.n	80002ea <_malloc_r+0x6a>
 80002e0:	2d00      	cmp	r5, #0
 80002e2:	dad6      	bge.n	8000292 <_malloc_r+0x12>
 80002e4:	230c      	movs	r3, #12
 80002e6:	2000      	movs	r0, #0
 80002e8:	6033      	str	r3, [r6, #0]
 80002ea:	bdf8      	pop	{r3, r4, r5, r6, r7, pc}
 80002ec:	6023      	str	r3, [r4, #0]
 80002ee:	18e4      	adds	r4, r4, r3
 80002f0:	6025      	str	r5, [r4, #0]
 80002f2:	e7e7      	b.n	80002c4 <_malloc_r+0x44>
 80002f4:	687b      	ldr	r3, [r7, #4]
 80002f6:	2b00      	cmp	r3, #0
 80002f8:	d01b      	beq.n	8000332 <_malloc_r+0xb2>
 80002fa:	0029      	movs	r1, r5
 80002fc:	0030      	movs	r0, r6
 80002fe:	f000 f821 	bl	8000344 <_sbrk_r>
 8000302:	1c43      	adds	r3, r0, #1
 8000304:	d00c      	beq.n	8000320 <_malloc_r+0xa0>
 8000306:	2303      	movs	r3, #3
 8000308:	1cc4      	adds	r4, r0, #3
 800030a:	439c      	bics	r4, r3
 800030c:	42a0      	cmp	r0, r4
 800030e:	d005      	beq.n	800031c <_malloc_r+0x9c>
 8000310:	1a21      	subs	r1, r4, r0
 8000312:	0030      	movs	r0, r6
 8000314:	f000 f816 	bl	8000344 <_sbrk_r>
 8000318:	1c43      	adds	r3, r0, #1
 800031a:	d001      	beq.n	8000320 <_malloc_r+0xa0>
 800031c:	6025      	str	r5, [r4, #0]
 800031e:	e7d1      	b.n	80002c4 <_malloc_r+0x44>
 8000320:	230c      	movs	r3, #12
 8000322:	0030      	movs	r0, r6
 8000324:	6033      	str	r3, [r6, #0]
 8000326:	f000 f865 	bl	80003f4 <__malloc_unlock>
 800032a:	2000      	movs	r0, #0
 800032c:	e7dd      	b.n	80002ea <_malloc_r+0x6a>
 800032e:	603b      	str	r3, [r7, #0]
 8000330:	e7c8      	b.n	80002c4 <_malloc_r+0x44>
 8000332:	2100      	movs	r1, #0
 8000334:	0030      	movs	r0, r6
 8000336:	f000 f805 	bl	8000344 <_sbrk_r>
 800033a:	6078      	str	r0, [r7, #4]
 800033c:	e7dd      	b.n	80002fa <_malloc_r+0x7a>
 800033e:	46c0      	nop			; (mov r8, r8)
 8000340:	20000080 	.word	0x20000080

08000344 <_sbrk_r>:
 8000344:	2300      	movs	r3, #0
 8000346:	b570      	push	{r4, r5, r6, lr}
 8000348:	4d06      	ldr	r5, [pc, #24]	; (8000364 <_sbrk_r+0x20>)
 800034a:	0004      	movs	r4, r0
 800034c:	0008      	movs	r0, r1
 800034e:	602b      	str	r3, [r5, #0]
 8000350:	f000 f852 	bl	80003f8 <_sbrk>
 8000354:	1c43      	adds	r3, r0, #1
 8000356:	d000      	beq.n	800035a <_sbrk_r+0x16>
 8000358:	bd70      	pop	{r4, r5, r6, pc}
 800035a:	682b      	ldr	r3, [r5, #0]
 800035c:	2b00      	cmp	r3, #0
 800035e:	d0fb      	beq.n	8000358 <_sbrk_r+0x14>
 8000360:	6023      	str	r3, [r4, #0]
 8000362:	e7f9      	b.n	8000358 <_sbrk_r+0x14>
 8000364:	20000088 	.word	0x20000088

08000368 <strcmp>:
 8000368:	4602      	mov	r2, r0
 800036a:	b570      	push	{r4, r5, r6, lr}
 800036c:	430a      	orrs	r2, r1
 800036e:	0792      	lsls	r2, r2, #30
 8000370:	d12a      	bne.n	80003c8 <strcmp+0x60>
 8000372:	4d1e      	ldr	r5, [pc, #120]	; (80003ec <strcmp+0x84>)
 8000374:	01ee      	lsls	r6, r5, #7
 8000376:	c804      	ldmia	r0!, {r2}
 8000378:	c908      	ldmia	r1!, {r3}
 800037a:	1b54      	subs	r4, r2, r5
 800037c:	4394      	bics	r4, r2
 800037e:	4034      	ands	r4, r6
 8000380:	d017      	beq.n	80003b2 <strcmp+0x4a>
 8000382:	b2d0      	uxtb	r0, r2
 8000384:	b2d9      	uxtb	r1, r3
 8000386:	1a40      	subs	r0, r0, r1
 8000388:	0621      	lsls	r1, r4, #24
 800038a:	4301      	orrs	r1, r0
 800038c:	d110      	bne.n	80003b0 <strcmp+0x48>
 800038e:	b290      	uxth	r0, r2
 8000390:	b299      	uxth	r1, r3
 8000392:	1a40      	subs	r0, r0, r1
 8000394:	0421      	lsls	r1, r4, #16
 8000396:	4301      	orrs	r1, r0
 8000398:	d10a      	bne.n	80003b0 <strcmp+0x48>
 800039a:	0210      	lsls	r0, r2, #8
 800039c:	0219      	lsls	r1, r3, #8
 800039e:	0a00      	lsrs	r0, r0, #8
 80003a0:	0a09      	lsrs	r1, r1, #8
 80003a2:	1a40      	subs	r0, r0, r1
 80003a4:	0221      	lsls	r1, r4, #8
 80003a6:	4301      	orrs	r1, r0
 80003a8:	d102      	bne.n	80003b0 <strcmp+0x48>
 80003aa:	0e10      	lsrs	r0, r2, #24
 80003ac:	0e19      	lsrs	r1, r3, #24
 80003ae:	1a40      	subs	r0, r0, r1
 80003b0:	bd70      	pop	{r4, r5, r6, pc}
 80003b2:	429a      	cmp	r2, r3
 80003b4:	d0df      	beq.n	8000376 <strcmp+0xe>
 80003b6:	ba10      	rev	r0, r2
 80003b8:	ba19      	rev	r1, r3
 80003ba:	4288      	cmp	r0, r1
 80003bc:	d901      	bls.n	80003c2 <strcmp+0x5a>
 80003be:	2001      	movs	r0, #1
 80003c0:	bd70      	pop	{r4, r5, r6, pc}
 80003c2:	2000      	movs	r0, #0
 80003c4:	43c0      	mvns	r0, r0
 80003c6:	bd70      	pop	{r4, r5, r6, pc}
 80003c8:	7802      	ldrb	r2, [r0, #0]
 80003ca:	780b      	ldrb	r3, [r1, #0]
 80003cc:	3001      	adds	r0, #1
 80003ce:	3101      	adds	r1, #1
 80003d0:	2a00      	cmp	r2, #0
 80003d2:	d009      	beq.n	80003e8 <strcmp+0x80>
 80003d4:	429a      	cmp	r2, r3
 80003d6:	d107      	bne.n	80003e8 <strcmp+0x80>
 80003d8:	7802      	ldrb	r2, [r0, #0]
 80003da:	780b      	ldrb	r3, [r1, #0]
 80003dc:	3001      	adds	r0, #1
 80003de:	3101      	adds	r1, #1
 80003e0:	2a00      	cmp	r2, #0
 80003e2:	d001      	beq.n	80003e8 <strcmp+0x80>
 80003e4:	429a      	cmp	r2, r3
 80003e6:	d0ef      	beq.n	80003c8 <strcmp+0x60>
 80003e8:	1ad0      	subs	r0, r2, r3
 80003ea:	bd70      	pop	{r4, r5, r6, pc}
 80003ec:	01010101 	.word	0x01010101

080003f0 <__malloc_lock>:
 80003f0:	4770      	bx	lr
 80003f2:	46c0      	nop			; (mov r8, r8)

080003f4 <__malloc_unlock>:
 80003f4:	4770      	bx	lr
 80003f6:	46c0      	nop			; (mov r8, r8)

080003f8 <_sbrk>:
 80003f8:	4a04      	ldr	r2, [pc, #16]	; (800040c <_sbrk+0x14>)
 80003fa:	0003      	movs	r3, r0
 80003fc:	6810      	ldr	r0, [r2, #0]
 80003fe:	2800      	cmp	r0, #0
 8000400:	d002      	beq.n	8000408 <_sbrk+0x10>
 8000402:	18c3      	adds	r3, r0, r3
 8000404:	6013      	str	r3, [r2, #0]
 8000406:	4770      	bx	lr
 8000408:	4801      	ldr	r0, [pc, #4]	; (8000410 <_sbrk+0x18>)
 800040a:	e7fa      	b.n	8000402 <_sbrk+0xa>
 800040c:	2000008c 	.word	0x2000008c
 8000410:	20000090 	.word	0x20000090

08000414 <_ZN4CPin5resetEv>:
 8000414:	2301      	movs	r3, #1
 8000416:	b510      	push	{r4, lr}
 8000418:	7902      	ldrb	r2, [r0, #4]
 800041a:	4903      	ldr	r1, [pc, #12]	; (8000428 <_ZN4CPin5resetEv+0x14>)
 800041c:	0052      	lsls	r2, r2, #1
 800041e:	4093      	lsls	r3, r2
 8000420:	680c      	ldr	r4, [r1, #0]
 8000422:	4323      	orrs	r3, r4
 8000424:	600b      	str	r3, [r1, #0]
 8000426:	bd10      	pop	{r4, pc}
 8000428:	4800000c 	.word	0x4800000c

0800042c <_ZN4CPin3setEv>:
 800042c:	2301      	movs	r3, #1
 800042e:	7900      	ldrb	r0, [r0, #4]
 8000430:	4a02      	ldr	r2, [pc, #8]	; (800043c <_ZN4CPin3setEv+0x10>)
 8000432:	4083      	lsls	r3, r0
 8000434:	6811      	ldr	r1, [r2, #0]
 8000436:	430b      	orrs	r3, r1
 8000438:	6013      	str	r3, [r2, #0]
 800043a:	4770      	bx	lr
 800043c:	4800000c 	.word	0x4800000c

08000440 <_Z9GPIO_InitP15GPIO_InitStruct>:
 8000440:	6801      	ldr	r1, [r0, #0]
 8000442:	b530      	push	{r4, r5, lr}
 8000444:	290f      	cmp	r1, #15
 8000446:	d826      	bhi.n	8000496 <_Z9GPIO_InitP15GPIO_InitStruct+0x56>
 8000448:	7903      	ldrb	r3, [r0, #4]
 800044a:	2b01      	cmp	r3, #1
 800044c:	d823      	bhi.n	8000496 <_Z9GPIO_InitP15GPIO_InitStruct+0x56>
 800044e:	d117      	bne.n	8000480 <_Z9GPIO_InitP15GPIO_InitStruct+0x40>
 8000450:	2403      	movs	r4, #3
 8000452:	0049      	lsls	r1, r1, #1
 8000454:	408c      	lsls	r4, r1
 8000456:	4d10      	ldr	r5, [pc, #64]	; (8000498 <_Z9GPIO_InitP15GPIO_InitStruct+0x58>)
 8000458:	682a      	ldr	r2, [r5, #0]
 800045a:	43a2      	bics	r2, r4
 800045c:	0014      	movs	r4, r2
 800045e:	7982      	ldrb	r2, [r0, #6]
 8000460:	408a      	lsls	r2, r1
 8000462:	0019      	movs	r1, r3
 8000464:	4322      	orrs	r2, r4
 8000466:	602a      	str	r2, [r5, #0]
 8000468:	6805      	ldr	r5, [r0, #0]
 800046a:	4c0c      	ldr	r4, [pc, #48]	; (800049c <_Z9GPIO_InitP15GPIO_InitStruct+0x5c>)
 800046c:	40a9      	lsls	r1, r5
 800046e:	6822      	ldr	r2, [r4, #0]
 8000470:	438a      	bics	r2, r1
 8000472:	0011      	movs	r1, r2
 8000474:	7942      	ldrb	r2, [r0, #5]
 8000476:	0912      	lsrs	r2, r2, #4
 8000478:	401a      	ands	r2, r3
 800047a:	40aa      	lsls	r2, r5
 800047c:	430a      	orrs	r2, r1
 800047e:	6022      	str	r2, [r4, #0]
 8000480:	6802      	ldr	r2, [r0, #0]
 8000482:	2003      	movs	r0, #3
 8000484:	2490      	movs	r4, #144	; 0x90
 8000486:	0052      	lsls	r2, r2, #1
 8000488:	4090      	lsls	r0, r2
 800048a:	4093      	lsls	r3, r2
 800048c:	05e4      	lsls	r4, r4, #23
 800048e:	6821      	ldr	r1, [r4, #0]
 8000490:	4381      	bics	r1, r0
 8000492:	430b      	orrs	r3, r1
 8000494:	6023      	str	r3, [r4, #0]
 8000496:	bd30      	pop	{r4, r5, pc}
 8000498:	48000008 	.word	0x48000008
 800049c:	48000004 	.word	0x48000004

080004a0 <_Z5delaym>:
 80004a0:	b082      	sub	sp, #8
 80004a2:	9001      	str	r0, [sp, #4]
 80004a4:	9b01      	ldr	r3, [sp, #4]
 80004a6:	2b00      	cmp	r3, #0
 80004a8:	d003      	beq.n	80004b2 <_Z5delaym+0x12>
 80004aa:	9b01      	ldr	r3, [sp, #4]
 80004ac:	3b01      	subs	r3, #1
 80004ae:	9301      	str	r3, [sp, #4]
 80004b0:	e7f8      	b.n	80004a4 <_Z5delaym+0x4>
 80004b2:	b002      	add	sp, #8
 80004b4:	4770      	bx	lr
	...

080004b8 <main>:
 80004b8:	2302      	movs	r3, #2
 80004ba:	b5f0      	push	{r4, r5, r6, r7, lr}
 80004bc:	2506      	movs	r5, #6
 80004be:	b085      	sub	sp, #20
 80004c0:	33ff      	adds	r3, #255	; 0xff
 80004c2:	4668      	mov	r0, sp
 80004c4:	9500      	str	r5, [sp, #0]
 80004c6:	9301      	str	r3, [sp, #4]
 80004c8:	ac02      	add	r4, sp, #8
 80004ca:	f7ff ffb9 	bl	8000440 <_Z9GPIO_InitP15GPIO_InitStruct>
 80004ce:	4b0c      	ldr	r3, [pc, #48]	; (8000500 <main+0x48>)
 80004d0:	0020      	movs	r0, r4
 80004d2:	26fa      	movs	r6, #250	; 0xfa
 80004d4:	7125      	strb	r5, [r4, #4]
 80004d6:	9302      	str	r3, [sp, #8]
 80004d8:	2500      	movs	r5, #0
 80004da:	f7ff ff9b 	bl	8000414 <_ZN4CPin5resetEv>
 80004de:	2701      	movs	r7, #1
 80004e0:	00b6      	lsls	r6, r6, #2
 80004e2:	0020      	movs	r0, r4
 80004e4:	2d00      	cmp	r5, #0
 80004e6:	d006      	beq.n	80004f6 <main+0x3e>
 80004e8:	f7ff ff94 	bl	8000414 <_ZN4CPin5resetEv>
 80004ec:	2500      	movs	r5, #0
 80004ee:	0030      	movs	r0, r6
 80004f0:	f7ff ffd6 	bl	80004a0 <_Z5delaym>
 80004f4:	e7f5      	b.n	80004e2 <main+0x2a>
 80004f6:	f7ff ff99 	bl	800042c <_ZN4CPin3setEv>
 80004fa:	003d      	movs	r5, r7
 80004fc:	e7f7      	b.n	80004ee <main+0x36>
 80004fe:	46c0      	nop			; (mov r8, r8)
 8000500:	080007bc 	.word	0x080007bc

08000504 <Reset_Handler>:
 8000504:	480c      	ldr	r0, [pc, #48]	; (8000538 <LoopForever+0x2>)
 8000506:	4685      	mov	sp, r0
 8000508:	480c      	ldr	r0, [pc, #48]	; (800053c <LoopForever+0x6>)
 800050a:	490d      	ldr	r1, [pc, #52]	; (8000540 <LoopForever+0xa>)
 800050c:	4a0d      	ldr	r2, [pc, #52]	; (8000544 <LoopForever+0xe>)
 800050e:	2300      	movs	r3, #0
 8000510:	e002      	b.n	8000518 <LoopCopyDataInit>

08000512 <CopyDataInit>:
 8000512:	58d4      	ldr	r4, [r2, r3]
 8000514:	50c4      	str	r4, [r0, r3]
 8000516:	3304      	adds	r3, #4

08000518 <LoopCopyDataInit>:
 8000518:	18c4      	adds	r4, r0, r3
 800051a:	428c      	cmp	r4, r1
 800051c:	d3f9      	bcc.n	8000512 <CopyDataInit>
 800051e:	4a0a      	ldr	r2, [pc, #40]	; (8000548 <LoopForever+0x12>)
 8000520:	4c0a      	ldr	r4, [pc, #40]	; (800054c <LoopForever+0x16>)
 8000522:	2300      	movs	r3, #0
 8000524:	e001      	b.n	800052a <LoopFillZerobss>

08000526 <FillZerobss>:
 8000526:	6013      	str	r3, [r2, #0]
 8000528:	3204      	adds	r2, #4

0800052a <LoopFillZerobss>:
 800052a:	42a2      	cmp	r2, r4
 800052c:	d3fb      	bcc.n	8000526 <FillZerobss>
 800052e:	f7ff fe11 	bl	8000154 <__libc_init_array>
 8000532:	f7ff ffc1 	bl	80004b8 <main>

08000536 <LoopForever>:
 8000536:	e7fe      	b.n	8000536 <LoopForever>
 8000538:	20008000 	.word	0x20008000
 800053c:	20000000 	.word	0x20000000
 8000540:	20000064 	.word	0x20000064
 8000544:	080008a0 	.word	0x080008a0
 8000548:	20000064 	.word	0x20000064
 800054c:	20000090 	.word	0x20000090

08000550 <ADC1_IRQHandler>:
 8000550:	e7fe      	b.n	8000550 <ADC1_IRQHandler>

08000552 <_ZNK10__cxxabiv117__class_type_info11__do_upcastEPKS0_PPv>:
 8000552:	b57f      	push	{r0, r1, r2, r3, r4, r5, r6, lr}
 8000554:	2310      	movs	r3, #16
 8000556:	2400      	movs	r4, #0
 8000558:	9302      	str	r3, [sp, #8]
 800055a:	6803      	ldr	r3, [r0, #0]
 800055c:	0015      	movs	r5, r2
 800055e:	699e      	ldr	r6, [r3, #24]
 8000560:	6812      	ldr	r2, [r2, #0]
 8000562:	466b      	mov	r3, sp
 8000564:	9400      	str	r4, [sp, #0]
 8000566:	9401      	str	r4, [sp, #4]
 8000568:	9403      	str	r4, [sp, #12]
 800056a:	47b0      	blx	r6
 800056c:	466b      	mov	r3, sp
 800056e:	2206      	movs	r2, #6
 8000570:	791b      	ldrb	r3, [r3, #4]
 8000572:	0020      	movs	r0, r4
 8000574:	4013      	ands	r3, r2
 8000576:	4293      	cmp	r3, r2
 8000578:	d102      	bne.n	8000580 <_ZNK10__cxxabiv117__class_type_info11__do_upcastEPKS0_PPv+0x2e>
 800057a:	9b00      	ldr	r3, [sp, #0]
 800057c:	3001      	adds	r0, #1
 800057e:	602b      	str	r3, [r5, #0]
 8000580:	b004      	add	sp, #16
 8000582:	bd70      	pop	{r4, r5, r6, pc}

08000584 <_ZNK10__cxxabiv117__class_type_info20__do_find_public_srcEiPKvPKS0_S2_>:
 8000584:	9b00      	ldr	r3, [sp, #0]
 8000586:	2001      	movs	r0, #1
 8000588:	4293      	cmp	r3, r2
 800058a:	d100      	bne.n	800058e <_ZNK10__cxxabiv117__class_type_info20__do_find_public_srcEiPKvPKS0_S2_+0xa>
 800058c:	3005      	adds	r0, #5
 800058e:	4770      	bx	lr

08000590 <_ZN10__cxxabiv117__class_type_infoD1Ev>:
 8000590:	b510      	push	{r4, lr}
 8000592:	0004      	movs	r4, r0
 8000594:	4b03      	ldr	r3, [pc, #12]	; (80005a4 <_ZN10__cxxabiv117__class_type_infoD1Ev+0x14>)
 8000596:	3308      	adds	r3, #8
 8000598:	6003      	str	r3, [r0, #0]
 800059a:	f000 f8cf 	bl	800073c <_ZNSt9type_infoD1Ev>
 800059e:	0020      	movs	r0, r4
 80005a0:	bd10      	pop	{r4, pc}
 80005a2:	46c0      	nop			; (mov r8, r8)
 80005a4:	080007f4 	.word	0x080007f4

080005a8 <_ZN10__cxxabiv117__class_type_infoD0Ev>:
 80005a8:	b510      	push	{r4, lr}
 80005aa:	0004      	movs	r4, r0
 80005ac:	f7ff fff0 	bl	8000590 <_ZN10__cxxabiv117__class_type_infoD1Ev>
 80005b0:	0020      	movs	r0, r4
 80005b2:	2108      	movs	r1, #8
 80005b4:	f000 f83e 	bl	8000634 <_ZdlPvj>
 80005b8:	0020      	movs	r0, r4
 80005ba:	bd10      	pop	{r4, pc}

080005bc <_ZNK10__cxxabiv117__class_type_info12__do_dyncastEiNS0_10__sub_kindEPKS0_PKvS3_S5_RNS0_16__dyncast_resultE>:
 80005bc:	b5f8      	push	{r3, r4, r5, r6, r7, lr}
 80005be:	0014      	movs	r4, r2
 80005c0:	001e      	movs	r6, r3
 80005c2:	9a08      	ldr	r2, [sp, #32]
 80005c4:	9b06      	ldr	r3, [sp, #24]
 80005c6:	0005      	movs	r5, r0
 80005c8:	9f09      	ldr	r7, [sp, #36]	; 0x24
 80005ca:	4293      	cmp	r3, r2
 80005cc:	d107      	bne.n	80005de <_ZNK10__cxxabiv117__class_type_info12__do_dyncastEiNS0_10__sub_kindEPKS0_PKvS3_S5_RNS0_16__dyncast_resultE+0x22>
 80005ce:	9907      	ldr	r1, [sp, #28]
 80005d0:	f000 f8b7 	bl	8000742 <_ZNKSt9type_infoeqERKS_>
 80005d4:	2800      	cmp	r0, #0
 80005d6:	d002      	beq.n	80005de <_ZNK10__cxxabiv117__class_type_info12__do_dyncastEiNS0_10__sub_kindEPKS0_PKvS3_S5_RNS0_16__dyncast_resultE+0x22>
 80005d8:	717c      	strb	r4, [r7, #5]
 80005da:	2000      	movs	r0, #0
 80005dc:	bdf8      	pop	{r3, r4, r5, r6, r7, pc}
 80005de:	0031      	movs	r1, r6
 80005e0:	0028      	movs	r0, r5
 80005e2:	f000 f8ae 	bl	8000742 <_ZNKSt9type_infoeqERKS_>
 80005e6:	2800      	cmp	r0, #0
 80005e8:	d0f7      	beq.n	80005da <_ZNK10__cxxabiv117__class_type_info12__do_dyncastEiNS0_10__sub_kindEPKS0_PKvS3_S5_RNS0_16__dyncast_resultE+0x1e>
 80005ea:	9b06      	ldr	r3, [sp, #24]
 80005ec:	713c      	strb	r4, [r7, #4]
 80005ee:	603b      	str	r3, [r7, #0]
 80005f0:	2301      	movs	r3, #1
 80005f2:	71bb      	strb	r3, [r7, #6]
 80005f4:	e7f1      	b.n	80005da <_ZNK10__cxxabiv117__class_type_info12__do_dyncastEiNS0_10__sub_kindEPKS0_PKvS3_S5_RNS0_16__dyncast_resultE+0x1e>

080005f6 <_ZNK10__cxxabiv117__class_type_info11__do_upcastEPKS0_PKvRNS0_15__upcast_resultE>:
 80005f6:	b570      	push	{r4, r5, r6, lr}
 80005f8:	0015      	movs	r5, r2
 80005fa:	001c      	movs	r4, r3
 80005fc:	f000 f8a1 	bl	8000742 <_ZNKSt9type_infoeqERKS_>
 8000600:	2800      	cmp	r0, #0
 8000602:	d004      	beq.n	800060e <_ZNK10__cxxabiv117__class_type_info11__do_upcastEPKS0_PKvRNS0_15__upcast_resultE+0x18>
 8000604:	2308      	movs	r3, #8
 8000606:	60e3      	str	r3, [r4, #12]
 8000608:	3b02      	subs	r3, #2
 800060a:	6025      	str	r5, [r4, #0]
 800060c:	7123      	strb	r3, [r4, #4]
 800060e:	bd70      	pop	{r4, r5, r6, pc}

08000610 <_ZNK10__cxxabiv117__class_type_info10__do_catchEPKSt9type_infoPPvj>:
 8000610:	b5f8      	push	{r3, r4, r5, r6, r7, lr}
 8000612:	0005      	movs	r5, r0
 8000614:	000c      	movs	r4, r1
 8000616:	0016      	movs	r6, r2
 8000618:	001f      	movs	r7, r3
 800061a:	f000 f892 	bl	8000742 <_ZNKSt9type_infoeqERKS_>
 800061e:	2800      	cmp	r0, #0
 8000620:	d107      	bne.n	8000632 <_ZNK10__cxxabiv117__class_type_info10__do_catchEPKSt9type_infoPPvj+0x22>
 8000622:	2f03      	cmp	r7, #3
 8000624:	d805      	bhi.n	8000632 <_ZNK10__cxxabiv117__class_type_info10__do_catchEPKSt9type_infoPPvj+0x22>
 8000626:	6823      	ldr	r3, [r4, #0]
 8000628:	0032      	movs	r2, r6
 800062a:	0029      	movs	r1, r5
 800062c:	0020      	movs	r0, r4
 800062e:	695b      	ldr	r3, [r3, #20]
 8000630:	4798      	blx	r3
 8000632:	bdf8      	pop	{r3, r4, r5, r6, r7, pc}

08000634 <_ZdlPvj>:
 8000634:	b510      	push	{r4, lr}
 8000636:	f000 f89a 	bl	800076e <_ZdlPv>
 800063a:	bd10      	pop	{r4, pc}

0800063c <_ZN10__cxxabiv120__si_class_type_infoD1Ev>:
 800063c:	b510      	push	{r4, lr}
 800063e:	0004      	movs	r4, r0
 8000640:	4b03      	ldr	r3, [pc, #12]	; (8000650 <_ZN10__cxxabiv120__si_class_type_infoD1Ev+0x14>)
 8000642:	3308      	adds	r3, #8
 8000644:	6003      	str	r3, [r0, #0]
 8000646:	f7ff ffa3 	bl	8000590 <_ZN10__cxxabiv117__class_type_infoD1Ev>
 800064a:	0020      	movs	r0, r4
 800064c:	bd10      	pop	{r4, pc}
 800064e:	46c0      	nop			; (mov r8, r8)
 8000650:	08000854 	.word	0x08000854

08000654 <_ZN10__cxxabiv120__si_class_type_infoD0Ev>:
 8000654:	b510      	push	{r4, lr}
 8000656:	0004      	movs	r4, r0
 8000658:	f7ff fff0 	bl	800063c <_ZN10__cxxabiv120__si_class_type_infoD1Ev>
 800065c:	0020      	movs	r0, r4
 800065e:	210c      	movs	r1, #12
 8000660:	f7ff ffe8 	bl	8000634 <_ZdlPvj>
 8000664:	0020      	movs	r0, r4
 8000666:	bd10      	pop	{r4, pc}

08000668 <_ZNK10__cxxabiv120__si_class_type_info20__do_find_public_srcEiPKvPKNS_17__class_type_infoES2_>:
 8000668:	b5f7      	push	{r0, r1, r2, r4, r5, r6, r7, lr}
 800066a:	001d      	movs	r5, r3
 800066c:	9b08      	ldr	r3, [sp, #32]
 800066e:	0004      	movs	r4, r0
 8000670:	000f      	movs	r7, r1
 8000672:	0016      	movs	r6, r2
 8000674:	4293      	cmp	r3, r2
 8000676:	d009      	beq.n	800068c <_ZNK10__cxxabiv120__si_class_type_info20__do_find_public_srcEiPKvPKNS_17__class_type_infoES2_+0x24>
 8000678:	68a0      	ldr	r0, [r4, #8]
 800067a:	9a08      	ldr	r2, [sp, #32]
 800067c:	6803      	ldr	r3, [r0, #0]
 800067e:	9200      	str	r2, [sp, #0]
 8000680:	6a1c      	ldr	r4, [r3, #32]
 8000682:	0032      	movs	r2, r6
 8000684:	002b      	movs	r3, r5
 8000686:	0039      	movs	r1, r7
 8000688:	47a0      	blx	r4
 800068a:	bdfe      	pop	{r1, r2, r3, r4, r5, r6, r7, pc}
 800068c:	0029      	movs	r1, r5
 800068e:	f000 f858 	bl	8000742 <_ZNKSt9type_infoeqERKS_>
 8000692:	2800      	cmp	r0, #0
 8000694:	d0f0      	beq.n	8000678 <_ZNK10__cxxabiv120__si_class_type_info20__do_find_public_srcEiPKvPKNS_17__class_type_infoES2_+0x10>
 8000696:	2006      	movs	r0, #6
 8000698:	e7f7      	b.n	800068a <_ZNK10__cxxabiv120__si_class_type_info20__do_find_public_srcEiPKvPKNS_17__class_type_infoES2_+0x22>

0800069a <_ZNK10__cxxabiv120__si_class_type_info12__do_dyncastEiNS_17__class_type_info10__sub_kindEPKS1_PKvS4_S6_RNS1_16__dyncast_resultE>:
 800069a:	b5f0      	push	{r4, r5, r6, r7, lr}
 800069c:	000d      	movs	r5, r1
 800069e:	b087      	sub	sp, #28
 80006a0:	0019      	movs	r1, r3
 80006a2:	9305      	str	r3, [sp, #20]
 80006a4:	0007      	movs	r7, r0
 80006a6:	9e0f      	ldr	r6, [sp, #60]	; 0x3c
 80006a8:	9204      	str	r2, [sp, #16]
 80006aa:	f000 f84a 	bl	8000742 <_ZNKSt9type_infoeqERKS_>
 80006ae:	9b0c      	ldr	r3, [sp, #48]	; 0x30
 80006b0:	1e04      	subs	r4, r0, #0
 80006b2:	d016      	beq.n	80006e2 <_ZNK10__cxxabiv120__si_class_type_info12__do_dyncastEiNS_17__class_type_info10__sub_kindEPKS1_PKvS4_S6_RNS1_16__dyncast_resultE+0x48>
 80006b4:	6033      	str	r3, [r6, #0]
 80006b6:	9b04      	ldr	r3, [sp, #16]
 80006b8:	7133      	strb	r3, [r6, #4]
 80006ba:	2d00      	cmp	r5, #0
 80006bc:	db0b      	blt.n	80006d6 <_ZNK10__cxxabiv120__si_class_type_info12__do_dyncastEiNS_17__class_type_info10__sub_kindEPKS1_PKvS4_S6_RNS1_16__dyncast_resultE+0x3c>
 80006be:	9b0c      	ldr	r3, [sp, #48]	; 0x30
 80006c0:	9a0e      	ldr	r2, [sp, #56]	; 0x38
 80006c2:	195d      	adds	r5, r3, r5
 80006c4:	2306      	movs	r3, #6
 80006c6:	42aa      	cmp	r2, r5
 80006c8:	d000      	beq.n	80006cc <_ZNK10__cxxabiv120__si_class_type_info12__do_dyncastEiNS_17__class_type_info10__sub_kindEPKS1_PKvS4_S6_RNS1_16__dyncast_resultE+0x32>
 80006ca:	3b05      	subs	r3, #5
 80006cc:	2400      	movs	r4, #0
 80006ce:	71b3      	strb	r3, [r6, #6]
 80006d0:	0020      	movs	r0, r4
 80006d2:	b007      	add	sp, #28
 80006d4:	bdf0      	pop	{r4, r5, r6, r7, pc}
 80006d6:	2400      	movs	r4, #0
 80006d8:	1cab      	adds	r3, r5, #2
 80006da:	d1f9      	bne.n	80006d0 <_ZNK10__cxxabiv120__si_class_type_info12__do_dyncastEiNS_17__class_type_info10__sub_kindEPKS1_PKvS4_S6_RNS1_16__dyncast_resultE+0x36>
 80006dc:	2301      	movs	r3, #1
 80006de:	71b3      	strb	r3, [r6, #6]
 80006e0:	e7f6      	b.n	80006d0 <_ZNK10__cxxabiv120__si_class_type_info12__do_dyncastEiNS_17__class_type_info10__sub_kindEPKS1_PKvS4_S6_RNS1_16__dyncast_resultE+0x36>
 80006e2:	9a0e      	ldr	r2, [sp, #56]	; 0x38
 80006e4:	4293      	cmp	r3, r2
 80006e6:	d108      	bne.n	80006fa <_ZNK10__cxxabiv120__si_class_type_info12__do_dyncastEiNS_17__class_type_info10__sub_kindEPKS1_PKvS4_S6_RNS1_16__dyncast_resultE+0x60>
 80006e8:	0038      	movs	r0, r7
 80006ea:	990d      	ldr	r1, [sp, #52]	; 0x34
 80006ec:	f000 f829 	bl	8000742 <_ZNKSt9type_infoeqERKS_>
 80006f0:	2800      	cmp	r0, #0
 80006f2:	d002      	beq.n	80006fa <_ZNK10__cxxabiv120__si_class_type_info12__do_dyncastEiNS_17__class_type_info10__sub_kindEPKS1_PKvS4_S6_RNS1_16__dyncast_resultE+0x60>
 80006f4:	9b04      	ldr	r3, [sp, #16]
 80006f6:	7173      	strb	r3, [r6, #5]
 80006f8:	e7ea      	b.n	80006d0 <_ZNK10__cxxabiv120__si_class_type_info12__do_dyncastEiNS_17__class_type_info10__sub_kindEPKS1_PKvS4_S6_RNS1_16__dyncast_resultE+0x36>
 80006fa:	9a0e      	ldr	r2, [sp, #56]	; 0x38
 80006fc:	68b8      	ldr	r0, [r7, #8]
 80006fe:	0029      	movs	r1, r5
 8000700:	6803      	ldr	r3, [r0, #0]
 8000702:	9202      	str	r2, [sp, #8]
 8000704:	9a0d      	ldr	r2, [sp, #52]	; 0x34
 8000706:	9603      	str	r6, [sp, #12]
 8000708:	9201      	str	r2, [sp, #4]
 800070a:	9a0c      	ldr	r2, [sp, #48]	; 0x30
 800070c:	9200      	str	r2, [sp, #0]
 800070e:	69dc      	ldr	r4, [r3, #28]
 8000710:	9a04      	ldr	r2, [sp, #16]
 8000712:	9b05      	ldr	r3, [sp, #20]
 8000714:	47a0      	blx	r4
 8000716:	0004      	movs	r4, r0
 8000718:	e7da      	b.n	80006d0 <_ZNK10__cxxabiv120__si_class_type_info12__do_dyncastEiNS_17__class_type_info10__sub_kindEPKS1_PKvS4_S6_RNS1_16__dyncast_resultE+0x36>

0800071a <_ZNK10__cxxabiv120__si_class_type_info11__do_upcastEPKNS_17__class_type_infoEPKvRNS1_15__upcast_resultE>:
 800071a:	b5f8      	push	{r3, r4, r5, r6, r7, lr}
 800071c:	0007      	movs	r7, r0
 800071e:	000c      	movs	r4, r1
 8000720:	0015      	movs	r5, r2
 8000722:	001e      	movs	r6, r3
 8000724:	f7ff ff67 	bl	80005f6 <_ZNK10__cxxabiv117__class_type_info11__do_upcastEPKS0_PKvRNS0_15__upcast_resultE>
 8000728:	2800      	cmp	r0, #0
 800072a:	d106      	bne.n	800073a <_ZNK10__cxxabiv120__si_class_type_info11__do_upcastEPKNS_17__class_type_infoEPKvRNS1_15__upcast_resultE+0x20>
 800072c:	68b8      	ldr	r0, [r7, #8]
 800072e:	002a      	movs	r2, r5
 8000730:	6803      	ldr	r3, [r0, #0]
 8000732:	0021      	movs	r1, r4
 8000734:	699f      	ldr	r7, [r3, #24]
 8000736:	0033      	movs	r3, r6
 8000738:	47b8      	blx	r7
 800073a:	bdf8      	pop	{r3, r4, r5, r6, r7, pc}

0800073c <_ZNSt9type_infoD1Ev>:
 800073c:	4770      	bx	lr

0800073e <_ZNKSt9type_info14__is_pointer_pEv>:
 800073e:	2000      	movs	r0, #0
 8000740:	4770      	bx	lr

08000742 <_ZNKSt9type_infoeqERKS_>:
 8000742:	2301      	movs	r3, #1
 8000744:	b510      	push	{r4, lr}
 8000746:	4281      	cmp	r1, r0
 8000748:	d00f      	beq.n	800076a <_ZNKSt9type_infoeqERKS_+0x28>
 800074a:	6840      	ldr	r0, [r0, #4]
 800074c:	2300      	movs	r3, #0
 800074e:	7802      	ldrb	r2, [r0, #0]
 8000750:	2a2a      	cmp	r2, #42	; 0x2a
 8000752:	d00a      	beq.n	800076a <_ZNKSt9type_infoeqERKS_+0x28>
 8000754:	6849      	ldr	r1, [r1, #4]
 8000756:	780b      	ldrb	r3, [r1, #0]
 8000758:	3b2a      	subs	r3, #42	; 0x2a
 800075a:	425a      	negs	r2, r3
 800075c:	4153      	adcs	r3, r2
 800075e:	18c9      	adds	r1, r1, r3
 8000760:	f7ff fe02 	bl	8000368 <strcmp>
 8000764:	4243      	negs	r3, r0
 8000766:	4158      	adcs	r0, r3
 8000768:	b2c3      	uxtb	r3, r0
 800076a:	0018      	movs	r0, r3
 800076c:	bd10      	pop	{r4, pc}

0800076e <_ZdlPv>:
 800076e:	b510      	push	{r4, lr}
 8000770:	f7ff fd1c 	bl	80001ac <free>
 8000774:	bd10      	pop	{r4, pc}
	...

08000778 <_init>:
 8000778:	b5f8      	push	{r3, r4, r5, r6, r7, lr}
 800077a:	46c0      	nop			; (mov r8, r8)
 800077c:	bcf8      	pop	{r3, r4, r5, r6, r7}
 800077e:	bc08      	pop	{r3}
 8000780:	469e      	mov	lr, r3
 8000782:	4770      	bx	lr

08000784 <_fini>:
 8000784:	b5f8      	push	{r3, r4, r5, r6, r7, lr}
 8000786:	46c0      	nop			; (mov r8, r8)
 8000788:	bcf8      	pop	{r3, r4, r5, r6, r7}
 800078a:	bc08      	pop	{r3}
 800078c:	469e      	mov	lr, r3
 800078e:	4770      	bx	lr
